target datalayout = "e-m:e-p270:32:32-p271:32:32-p272:64:64-i64:64-i128:128-f80:128-n8:16:32:64-S128"
target triple = "x86_64-pc-linux-gnu"

%struct._zend_ssa = type { %struct._zend_cfg, i32, i32, ptr, ptr, ptr, ptr }
%struct._zend_cfg = type { i32, i32, ptr, ptr, ptr, i32 }
%struct._zend_basic_block = type { ptr, i32, i32, i32, i32, i32, i32, i32, i32, i32, i32, i32, [2 x i32] }
%struct._zend_ssa_phi = type { ptr, i32, %union._zend_ssa_pi_constraint, i32, i32, i32, i8, ptr, ptr, ptr }
%union._zend_ssa_pi_constraint = type { %struct._zend_ssa_range_constraint }
%struct._zend_ssa_range_constraint = type { %struct._zend_ssa_range, i32, i32, i32, i32, i32 }
%struct._zend_ssa_range = type { i64, i64, i8, i8 }
%struct._zend_ssa_var = type { i32, i32, i32, i32, ptr, ptr, ptr, i8 }
%struct._zend_ssa_var_info = type { i32, i8, %struct._zend_ssa_range, ptr }

; Function Attrs: alwaysinline nounwind uwtable
define internal ptr @zend_ssa_next_use_phi(ptr noundef %0, i32 noundef %1, ptr noundef %2) #1 {
  %4 = alloca ptr, align 8
  %5 = alloca ptr, align 8
  %6 = alloca i32, align 4
  %7 = alloca ptr, align 8
  %8 = alloca i32, align 4
  %9 = alloca i32, align 4
  store ptr %0, ptr %5, align 8, !tbaa !48
  store i32 %1, ptr %6, align 4, !tbaa !11
  store ptr %2, ptr %7, align 8, !tbaa !85
  %10 = load ptr, ptr %7, align 8, !tbaa !85
  %11 = getelementptr inbounds nuw %struct._zend_ssa_phi, ptr %10, i32 0, i32 1
  %12 = load i32, ptr %11, align 8, !tbaa !91
  %13 = icmp sge i32 %12, 0
  br i1 %13, label %14, label %20

14:                                               ; preds = %3
  %15 = load ptr, ptr %7, align 8, !tbaa !85
  %16 = getelementptr inbounds nuw %struct._zend_ssa_phi, ptr %15, i32 0, i32 7
  %17 = load ptr, ptr %16, align 8, !tbaa !90
  %18 = getelementptr inbounds ptr, ptr %17, i64 0
  %19 = load ptr, ptr %18, align 8, !tbaa !85
  store ptr %19, ptr %4, align 8
  br label %62

20:                                               ; preds = %3
  call void @llvm.lifetime.start.p0(i64 4, ptr %8) #13
  store i32 0, ptr %8, align 4, !tbaa !11
  br label %21

21:                                               ; preds = %54, %20
  %22 = load i32, ptr %8, align 4, !tbaa !11
  %23 = load ptr, ptr %5, align 8, !tbaa !48
  %24 = getelementptr inbounds nuw %struct._zend_ssa, ptr %23, i32 0, i32 0
  %25 = getelementptr inbounds nuw %struct._zend_cfg, ptr %24, i32 0, i32 2
  %26 = load ptr, ptr %25, align 8, !tbaa !50
  %27 = load ptr, ptr %7, align 8, !tbaa !85
  %28 = getelementptr inbounds nuw %struct._zend_ssa_phi, ptr %27, i32 0, i32 5
  %29 = load i32, ptr %28, align 8, !tbaa !126
  %30 = sext i32 %29 to i64
  %31 = getelementptr inbounds %struct._zend_basic_block, ptr %26, i64 %30
  %32 = getelementptr inbounds nuw %struct._zend_basic_block, ptr %31, i32 0, i32 5
  %33 = load i32, ptr %32, align 8, !tbaa !77
  %34 = icmp slt i32 %22, %33
  br i1 %34, label %35, label %57

35:                                               ; preds = %21
  %36 = load ptr, ptr %7, align 8, !tbaa !85
  %37 = getelementptr inbounds nuw %struct._zend_ssa_phi, ptr %36, i32 0, i32 9
  %38 = load ptr, ptr %37, align 8, !tbaa !87
  %39 = load i32, ptr %8, align 4, !tbaa !11
  %40 = sext i32 %39 to i64
  %41 = getelementptr inbounds i32, ptr %38, i64 %40
  %42 = load i32, ptr %41, align 4, !tbaa !11
  %43 = load i32, ptr %6, align 4, !tbaa !11
  %44 = icmp eq i32 %42, %43
  br i1 %44, label %45, label %53

45:                                               ; preds = %35
  %46 = load ptr, ptr %7, align 8, !tbaa !85
  %47 = getelementptr inbounds nuw %struct._zend_ssa_phi, ptr %46, i32 0, i32 7
  %48 = load ptr, ptr %47, align 8, !tbaa !90
  %49 = load i32, ptr %8, align 4, !tbaa !11
  %50 = sext i32 %49 to i64
  %51 = getelementptr inbounds ptr, ptr %48, i64 %50
  %52 = load ptr, ptr %51, align 8, !tbaa !85
  store ptr %52, ptr %4, align 8
  store i32 1, ptr %9, align 4
  br label %58

53:                                               ; preds = %35
  br label %54

54:                                               ; preds = %53
  %55 = load i32, ptr %8, align 4, !tbaa !11
  %56 = add nsw i32 %55, 1
  store i32 %56, ptr %8, align 4, !tbaa !11
  br label %21

57:                                               ; preds = %21
  store i32 0, ptr %9, align 4
  br label %58

58:                                               ; preds = %57, %45
  call void @llvm.lifetime.end.p0(i64 4, ptr %8) #13
  %59 = load i32, ptr %9, align 4
  switch i32 %59, label %64 [
    i32 0, label %60
    i32 1, label %62
  ]

60:                                               ; preds = %58
  br label %61

61:                                               ; preds = %60
  store ptr null, ptr %4, align 8
  br label %62

62:                                               ; preds = %61, %58, %14
  %63 = load ptr, ptr %4, align 8
  ret ptr %63

64:                                               ; preds = %58
  unreachable
}

; Function Attrs: nounwind uwtable
define internal void @propagate_phi_type_widening(ptr noundef %0, i32 noundef %1) #0 {
  %3 = alloca ptr, align 8
  %4 = alloca i32, align 4
  %5 = alloca ptr, align 8
  %6 = alloca i32, align 4
  %7 = alloca ptr, align 8
  store ptr %0, ptr %3, align 8, !tbaa !48
  store i32 %1, ptr %4, align 4, !tbaa !11
  call void @llvm.lifetime.start.p0(i64 8, ptr %5) #13
  br label %8

8:                                                ; preds = %2
  call void @llvm.lifetime.start.p0(i64 4, ptr %6) #13
  %9 = load ptr, ptr %3, align 8, !tbaa !48
  %10 = getelementptr inbounds nuw %struct._zend_ssa, ptr %9, i32 0, i32 5
  %11 = load ptr, ptr %10, align 8, !tbaa !116
  %12 = load i32, ptr %4, align 4, !tbaa !11
  %13 = sext i32 %12 to i64
  %14 = getelementptr inbounds %struct._zend_ssa_var, ptr %11, i64 %13
  %15 = load ptr, ptr %3, align 8, !tbaa !48
  %16 = getelementptr inbounds nuw %struct._zend_ssa, ptr %15, i32 0, i32 5
  %17 = load ptr, ptr %16, align 8, !tbaa !116
  %18 = ptrtoint ptr %14 to i64
  %19 = ptrtoint ptr %17 to i64
  %20 = sub i64 %18, %19
  %21 = sdiv exact i64 %20, 48
  %22 = trunc i64 %21 to i32
  store i32 %22, ptr %6, align 4, !tbaa !11
  call void @llvm.lifetime.start.p0(i64 8, ptr %7) #13
  %23 = load ptr, ptr %3, align 8, !tbaa !48
  %24 = getelementptr inbounds nuw %struct._zend_ssa, ptr %23, i32 0, i32 5
  %25 = load ptr, ptr %24, align 8, !tbaa !116
  %26 = load i32, ptr %4, align 4, !tbaa !11
  %27 = sext i32 %26 to i64
  %28 = getelementptr inbounds %struct._zend_ssa_var, ptr %25, i64 %27
  %29 = getelementptr inbounds nuw %struct._zend_ssa_var, ptr %28, i32 0, i32 5
  %30 = load ptr, ptr %29, align 8, !tbaa !128
  store ptr %30, ptr %5, align 8, !tbaa !85
  br label %31

31:                                               ; preds = %85, %8
  %32 = load ptr, ptr %5, align 8, !tbaa !85
  %33 = icmp ne ptr %32, null
  br i1 %33, label %34, label %87

34:                                               ; preds = %31
  %35 = load ptr, ptr %3, align 8, !tbaa !48
  %36 = load i32, ptr %6, align 4, !tbaa !11
  %37 = load ptr, ptr %5, align 8, !tbaa !85
  %38 = call ptr @zend_ssa_next_use_phi(ptr noundef %35, i32 noundef %36, ptr noundef %37)
  store ptr %38, ptr %7, align 8, !tbaa !85
  %39 = load ptr, ptr %3, align 8, !tbaa !48
  %40 = getelementptr inbounds nuw %struct._zend_ssa, ptr %39, i32 0, i32 6
  %41 = load ptr, ptr %40, align 8, !tbaa !144
  %42 = load i32, ptr %4, align 4, !tbaa !11
  %43 = sext i32 %42 to i64
  %44 = getelementptr inbounds %struct._zend_ssa_var_info, ptr %41, i64 %43
  %45 = getelementptr inbounds nuw %struct._zend_ssa_var_info, ptr %44, i32 0, i32 0
  %46 = load i32, ptr %45, align 8, !tbaa !145
  %47 = load ptr, ptr %3, align 8, !tbaa !48
  %48 = getelementptr inbounds nuw %struct._zend_ssa, ptr %47, i32 0, i32 6
  %49 = load ptr, ptr %48, align 8, !tbaa !144
  %50 = load ptr, ptr %5, align 8, !tbaa !85
  %51 = getelementptr inbounds nuw %struct._zend_ssa_phi, ptr %50, i32 0, i32 4
  %52 = load i32, ptr %51, align 4, !tbaa !93
  %53 = sext i32 %52 to i64
  %54 = getelementptr inbounds %struct._zend_ssa_var_info, ptr %49, i64 %53
  %55 = getelementptr inbounds nuw %struct._zend_ssa_var_info, ptr %54, i32 0, i32 0
  %56 = load i32, ptr %55, align 8, !tbaa !145
  %57 = xor i32 %56, -1
  %58 = and i32 %46, %57
  %59 = icmp ne i32 %58, 0
  br i1 %59, label %60, label %84

60:                                               ; preds = %34
  %61 = load ptr, ptr %3, align 8, !tbaa !48
  %62 = getelementptr inbounds nuw %struct._zend_ssa, ptr %61, i32 0, i32 6
  %63 = load ptr, ptr %62, align 8, !tbaa !144
  %64 = load i32, ptr %4, align 4, !tbaa !11
  %65 = sext i32 %64 to i64
  %66 = getelementptr inbounds %struct._zend_ssa_var_info, ptr %63, i64 %65
  %67 = getelementptr inbounds nuw %struct._zend_ssa_var_info, ptr %66, i32 0, i32 0
  %68 = load i32, ptr %67, align 8, !tbaa !145
  %69 = load ptr, ptr %3, align 8, !tbaa !48
  %70 = getelementptr inbounds nuw %struct._zend_ssa, ptr %69, i32 0, i32 6
  %71 = load ptr, ptr %70, align 8, !tbaa !144
  %72 = load ptr, ptr %5, align 8, !tbaa !85
  %73 = getelementptr inbounds nuw %struct._zend_ssa_phi, ptr %72, i32 0, i32 4
  %74 = load i32, ptr %73, align 4, !tbaa !93
  %75 = sext i32 %74 to i64
  %76 = getelementptr inbounds %struct._zend_ssa_var_info, ptr %71, i64 %75
  %77 = getelementptr inbounds nuw %struct._zend_ssa_var_info, ptr %76, i32 0, i32 0
  %78 = load i32, ptr %77, align 8, !tbaa !145
  %79 = or i32 %78, %68
  store i32 %79, ptr %77, align 8, !tbaa !145
  %80 = load ptr, ptr %3, align 8, !tbaa !48
  %81 = load ptr, ptr %5, align 8, !tbaa !85
  %82 = getelementptr inbounds nuw %struct._zend_ssa_phi, ptr %81, i32 0, i32 4
  %83 = load i32, ptr %82, align 4, !tbaa !93
  call void @propagate_phi_type_widening(ptr noundef %80, i32 noundef %83)
  br label %84

84:                                               ; preds = %60, %34
  br label %85

85:                                               ; preds = %84
  %86 = load ptr, ptr %7, align 8, !tbaa !85
  store ptr %86, ptr %5, align 8, !tbaa !85
  br label %31

87:                                               ; preds = %31
  call void @llvm.lifetime.end.p0(i64 8, ptr %7) #13
  call void @llvm.lifetime.end.p0(i64 4, ptr %6) #13
  br label %88

88:                                               ; preds = %87
  br label %89

89:                                               ; preds = %88
  call void @llvm.lifetime.end.p0(i64 8, ptr %5) #13
  ret void
}