; Function Attrs: nofree nosync nounwind memory(readwrite, inaccessiblemem: none) uwtable
define internal fastcc void @propagate_phi_type_widening(ptr noundef readonly captures(none) %0, i32 noundef %1) unnamed_addr #11 {
  %3 = getelementptr inbounds nuw i8, ptr %0, i64 64
  %4 = load ptr, ptr %3, align 8, !tbaa !115
  %5 = sext i32 %1 to i64
  %6 = getelementptr inbounds %struct._zend_ssa_var, ptr %4, i64 %5, i32 5
  %7 = load ptr, ptr %6, align 8, !tbaa !126
  %.not23 = icmp eq ptr %7, null
  br i1 %.not23, label %._crit_edge, label %.lr.ph26

.lr.ph26:                                         ; preds = %2
  %8 = getelementptr inbounds nuw i8, ptr %0, i64 8
  %9 = getelementptr inbounds nuw i8, ptr %0, i64 72
  br label %10

10:                                               ; preds = %.lr.ph26, %49
  %.024 = phi ptr [ %7, %.lr.ph26 ], [ %.013.i, %49 ]
  %11 = getelementptr inbounds nuw i8, ptr %.024, i64 8
  %12 = load i32, ptr %11, align 8, !tbaa !100
  %13 = icmp sgt i32 %12, -1
  br i1 %13, label %23, label %.preheader

.preheader:                                       ; preds = %10
  %14 = load ptr, ptr %8, align 8, !tbaa !38
  %15 = getelementptr inbounds nuw i8, ptr %.024, i64 72
  %16 = load i32, ptr %15, align 8, !tbaa !124
  %17 = sext i32 %16 to i64
  %18 = getelementptr inbounds %struct._zend_basic_block, ptr %14, i64 %17, i32 5
  %19 = load i32, ptr %18, align 8, !tbaa !94
  %.not2021 = icmp sgt i32 %19, 0
  br i1 %.not2021, label %.lr.ph, label %zend_ssa_next_use_phi.exit

.lr.ph:                                           ; preds = %.preheader
  %20 = getelementptr inbounds nuw i8, ptr %.024, i64 96
  %21 = load ptr, ptr %20, align 8, !tbaa !98
  %22 = zext nneg i32 %19 to i64
  br label %28

23:                                               ; preds = %10
  %24 = getelementptr inbounds nuw i8, ptr %.024, i64 80
  %25 = load ptr, ptr %24, align 8, !tbaa !99
  %26 = load ptr, ptr %25, align 8, !tbaa !103
  br label %zend_ssa_next_use_phi.exit

27:                                               ; preds = %28
  %indvars.iv.next = add nuw nsw i64 %indvars.iv, 1
  %exitcond.not = icmp eq i64 %indvars.iv.next, %22
  br i1 %exitcond.not, label %zend_ssa_next_use_phi.exit, label %28

28:                                               ; preds = %.lr.ph, %27
  %indvars.iv = phi i64 [ 0, %.lr.ph ], [ %indvars.iv.next, %27 ]
  %29 = getelementptr inbounds nuw i32, ptr %21, i64 %indvars.iv
  %30 = load i32, ptr %29, align 4, !tbaa !11
  %31 = icmp eq i32 %30, %1
  br i1 %31, label %32, label %27

32:                                               ; preds = %28
  %33 = getelementptr inbounds nuw i8, ptr %.024, i64 80
  %34 = load ptr, ptr %33, align 8, !tbaa !99
  %35 = getelementptr inbounds nuw ptr, ptr %34, i64 %indvars.iv
  %36 = load ptr, ptr %35, align 8, !tbaa !103
  br label %zend_ssa_next_use_phi.exit

zend_ssa_next_use_phi.exit:                       ; preds = %27, %.preheader, %32, %23
  %.013.i = phi ptr [ %26, %23 ], [ %36, %32 ], [ null, %.preheader ], [ null, %27 ]
  %37 = load ptr, ptr %9, align 8, !tbaa !135
  %38 = getelementptr inbounds %struct._zend_ssa_var_info, ptr %37, i64 %5
  %39 = load i32, ptr %38, align 8, !tbaa !136
  %40 = getelementptr inbounds nuw i8, ptr %.024, i64 68
  %41 = load i32, ptr %40, align 4, !tbaa !102
  %42 = sext i32 %41 to i64
  %43 = getelementptr inbounds %struct._zend_ssa_var_info, ptr %37, i64 %42
  %44 = load i32, ptr %43, align 8, !tbaa !136
  %45 = xor i32 %44, -1
  %46 = and i32 %39, %45
  %.not19 = icmp eq i32 %46, 0
  br i1 %.not19, label %49, label %47

47:                                               ; preds = %zend_ssa_next_use_phi.exit
  %48 = or i32 %44, %39
  store i32 %48, ptr %43, align 8, !tbaa !136
  tail call fastcc void @propagate_phi_type_widening(ptr noundef nonnull %0, i32 noundef %41)
  br label %49

49:                                               ; preds = %zend_ssa_next_use_phi.exit, %47
  %.not = icmp eq ptr %.013.i, null
  br i1 %.not, label %._crit_edge, label %10

._crit_edge:                                      ; preds = %49, %2
  ret void
}